target datalayout = "e-m:e-p270:32:32-p271:32:32-p272:64:64-i64:64-i128:128-f80:128-n8:16:32:64-S128"
target triple = "x86_64-pc-linux-gnu"

; Function Attrs: mustprogress nounwind uwtable
define hidden noundef ptr @_ZN5boost3log11v2_mt_posix3aux14char_constantsIcE21scan_attr_placeholderEPKcS6_(ptr noundef %0, ptr noundef %1) #6 align 2 {
  %3 = alloca ptr, align 8
  %4 = alloca ptr, align 8
  %5 = alloca i8, align 1
  %6 = alloca i32, align 4
  store ptr %0, ptr %3, align 8, !tbaa !3
  store ptr %1, ptr %4, align 8, !tbaa !3
  br label %7

7:                                                ; preds = %28, %2
  %8 = load ptr, ptr %3, align 8, !tbaa !3
  %9 = load ptr, ptr %4, align 8, !tbaa !3
  %10 = icmp ne ptr %8, %9
  br i1 %10, label %11, label %29

11:                                               ; preds = %7
  call void @llvm.lifetime.start.p0(i64 1, ptr %5) #5
  %12 = load ptr, ptr %3, align 8, !tbaa !3
  %13 = load i8, ptr %12, align 1, !tbaa !7
  store i8 %13, ptr %5, align 1, !tbaa !7
  %14 = load i8, ptr %5, align 1, !tbaa !7
  %15 = sext i8 %14 to i32
  %16 = call i32 @isalnum(i32 noundef %15) #14
  %17 = icmp ne i32 %16, 0
  br i1 %17, label %23, label %18

18:                                               ; preds = %11
  %19 = load i8, ptr %5, align 1, !tbaa !7
  %20 = sext i8 %19 to i32
  %21 = icmp ne i32 %20, 95
  br i1 %21, label %22, label %23

22:                                               ; preds = %18
  store i32 3, ptr %6, align 4
  br label %26

23:                                               ; preds = %18, %11
  %24 = load ptr, ptr %3, align 8, !tbaa !3
  %25 = getelementptr inbounds nuw i8, ptr %24, i32 1
  store ptr %25, ptr %3, align 8, !tbaa !3
  store i32 0, ptr %6, align 4
  br label %26

26:                                               ; preds = %23, %22
  call void @llvm.lifetime.end.p0(i64 1, ptr %5) #5
  %27 = load i32, ptr %6, align 4
  switch i32 %27, label %31 [
    i32 0, label %28
    i32 3, label %29
  ]

28:                                               ; preds = %26
  br label %7, !llvm.loop !11

29:                                               ; preds = %26, %7
  %30 = load ptr, ptr %3, align 8, !tbaa !3
  ret ptr %30

31:                                               ; preds = %26
  unreachable
}