; Function Attrs: mustprogress nofree nounwind willreturn memory(read) uwtable
define hidden noundef ptr @_ZN5boost3log11v2_mt_posix3aux14char_constantsIcE21scan_attr_placeholderEPKcS6_(ptr noundef readonly %0, ptr noundef readnone %1) local_unnamed_addr #3 align 2 {
  %3 = ptrtoint ptr %0 to i64
  %4 = ptrtoint ptr %1 to i64
  %5 = sub i64 %4, %3
  %scevgep = getelementptr i8, ptr %0, i64 %5
  br label %6

6:                                                ; preds = %7, %2
  %.09 = phi ptr [ %0, %2 ], [ %13, %7 ]
  %.not = icmp eq ptr %.09, %1
  br i1 %.not, label %14, label %7

7:                                                ; preds = %6
  %8 = load i8, ptr %.09, align 1, !tbaa !3
  %9 = sext i8 %8 to i32
  %10 = tail call i32 @isalnum(i32 noundef %9) #9
  %11 = icmp eq i32 %10, 0
  %12 = icmp ne i8 %8, 95
  %or.cond = and i1 %12, %11
  %13 = getelementptr inbounds nuw i8, ptr %.09, i64 1
  br i1 %or.cond, label %14, label %6

14:                                               ; preds = %7, %6
  %.09.lcssa = phi ptr [ %.09, %7 ], [ %scevgep, %6 ]
  ret ptr %.09.lcssa
}